target datalayout = "e-m:e-p270:32:32-p271:32:32-p272:64:64-i64:64-i128:128-f80:128-n8:16:32:64-S128"
target triple = "x86_64-pc-linux-gnu"

%"class.icu_77::CollationWeights" = type { i32, [5 x i32], [5 x i32], [7 x %"struct.icu_77::CollationWeights::WeightRange"], i32, i32 }
%"struct.icu_77::CollationWeights::WeightRange" = type { i32, i32, i32, i32 }

; Function Attrs: inlinehint mustprogress nounwind uwtable
define internal noundef i32 @_ZN6icu_77L14getWeightTrailEji(i32 noundef %0, i32 noundef %1) #4 {
  %3 = alloca i32, align 4
  %4 = alloca i32, align 4
  store i32 %0, ptr %3, align 4, !tbaa !13
  store i32 %1, ptr %4, align 4, !tbaa !13
  %5 = load i32, ptr %3, align 4, !tbaa !13
  %6 = load i32, ptr %4, align 4, !tbaa !13
  %7 = sub nsw i32 4, %6
  %8 = mul nsw i32 8, %7
  %9 = lshr i32 %5, %8
  %10 = and i32 %9, 255
  ret i32 %10
}

; Function Attrs: inlinehint mustprogress nounwind uwtable
define linkonce_odr noundef i32 @_ZNK6icu_7716CollationWeights10countBytesEi(ptr noundef nonnull align 4 dereferenceable(164) %0, i32 noundef %1) #4 comdat align 2 {
  %3 = alloca ptr, align 8
  %4 = alloca i32, align 4
  store ptr %0, ptr %3, align 8, !tbaa !3
  store i32 %1, ptr %4, align 4, !tbaa !13
  %5 = load ptr, ptr %3, align 8
  %6 = getelementptr inbounds nuw %"class.icu_77::CollationWeights", ptr %5, i32 0, i32 2
  %7 = load i32, ptr %4, align 4, !tbaa !13
  %8 = sext i32 %7 to i64
  %9 = getelementptr inbounds [5 x i32], ptr %6, i64 0, i64 %8
  %10 = load i32, ptr %9, align 4, !tbaa !13
  %11 = getelementptr inbounds nuw %"class.icu_77::CollationWeights", ptr %5, i32 0, i32 1
  %12 = load i32, ptr %4, align 4, !tbaa !13
  %13 = sext i32 %12 to i64
  %14 = getelementptr inbounds [5 x i32], ptr %11, i64 0, i64 %13
  %15 = load i32, ptr %14, align 4, !tbaa !13
  %16 = sub i32 %10, %15
  %17 = add i32 %16, 1
  ret i32 %17
}

; Function Attrs: inlinehint mustprogress nounwind uwtable
define internal noundef i32 @_ZN6icu_77L13setWeightByteEjij(i32 noundef %0, i32 noundef %1, i32 noundef %2) #4 {
  %4 = alloca i32, align 4
  %5 = alloca i32, align 4
  %6 = alloca i32, align 4
  %7 = alloca i32, align 4
  store i32 %0, ptr %4, align 4, !tbaa !13
  store i32 %1, ptr %5, align 4, !tbaa !13
  store i32 %2, ptr %6, align 4, !tbaa !13
  call void @llvm.lifetime.start.p0(i64 4, ptr %7) #8
  %8 = load i32, ptr %5, align 4, !tbaa !13
  %9 = mul nsw i32 %8, 8
  store i32 %9, ptr %5, align 4, !tbaa !13
  %10 = load i32, ptr %5, align 4, !tbaa !13
  %11 = icmp slt i32 %10, 32
  br i1 %11, label %12, label %15

12:                                               ; preds = %3
  %13 = load i32, ptr %5, align 4, !tbaa !13
  %14 = lshr i32 -1, %13
  store i32 %14, ptr %7, align 4, !tbaa !13
  br label %16

15:                                               ; preds = %3
  store i32 0, ptr %7, align 4, !tbaa !13
  br label %16

16:                                               ; preds = %15, %12
  %17 = load i32, ptr %5, align 4, !tbaa !13
  %18 = sub nsw i32 32, %17
  store i32 %18, ptr %5, align 4, !tbaa !13
  %19 = load i32, ptr %5, align 4, !tbaa !13
  %20 = shl i32 -256, %19
  %21 = load i32, ptr %7, align 4, !tbaa !13
  %22 = or i32 %21, %20
  store i32 %22, ptr %7, align 4, !tbaa !13
  %23 = load i32, ptr %4, align 4, !tbaa !13
  %24 = load i32, ptr %7, align 4, !tbaa !13
  %25 = and i32 %23, %24
  %26 = load i32, ptr %6, align 4, !tbaa !13
  %27 = load i32, ptr %5, align 4, !tbaa !13
  %28 = shl i32 %26, %27
  %29 = or i32 %25, %28
  call void @llvm.lifetime.end.p0(i64 4, ptr %7) #8
  ret i32 %29
}

; Function Attrs: inlinehint mustprogress uwtable
define internal noundef i32 @_ZN6icu_77L13getWeightByteEji(i32 noundef %0, i32 noundef %1) #3 {
  %3 = alloca i32, align 4
  %4 = alloca i32, align 4
  store i32 %0, ptr %3, align 4, !tbaa !13
  store i32 %1, ptr %4, align 4, !tbaa !13
  %5 = load i32, ptr %3, align 4, !tbaa !13
  %6 = load i32, ptr %4, align 4, !tbaa !13
  %7 = call noundef i32 @_ZN6icu_77L14getWeightTrailEji(i32 noundef %5, i32 noundef %6)
  ret i32 %7
}

; Function Attrs: mustprogress uwtable
define noundef i32 @_ZNK6icu_7716CollationWeights17incWeightByOffsetEjii(ptr noundef nonnull align 4 dereferenceable(164) %0, i32 noundef %1, i32 noundef %2, i32 noundef %3) #2 align 2 {
  %5 = alloca ptr, align 8
  %6 = alloca i32, align 4
  %7 = alloca i32, align 4
  %8 = alloca i32, align 4
  store ptr %0, ptr %5, align 8, !tbaa !3
  store i32 %1, ptr %6, align 4, !tbaa !13
  store i32 %2, ptr %7, align 4, !tbaa !13
  store i32 %3, ptr %8, align 4, !tbaa !13
  %9 = load ptr, ptr %5, align 8
  br label %10

10:                                               ; preds = %55, %4
  %11 = load i32, ptr %6, align 4, !tbaa !13
  %12 = load i32, ptr %7, align 4, !tbaa !13
  %13 = call noundef i32 @_ZN6icu_77L13getWeightByteEji(i32 noundef %11, i32 noundef %12)
  %14 = load i32, ptr %8, align 4, !tbaa !13
  %15 = add i32 %14, %13
  store i32 %15, ptr %8, align 4, !tbaa !13
  %16 = load i32, ptr %8, align 4, !tbaa !13
  %17 = getelementptr inbounds nuw %"class.icu_77::CollationWeights", ptr %9, i32 0, i32 2
  %18 = load i32, ptr %7, align 4, !tbaa !13
  %19 = sext i32 %18 to i64
  %20 = getelementptr inbounds [5 x i32], ptr %17, i64 0, i64 %19
  %21 = load i32, ptr %20, align 4, !tbaa !13
  %22 = icmp ule i32 %16, %21
  br i1 %22, label %23, label %28

23:                                               ; preds = %10
  %24 = load i32, ptr %6, align 4, !tbaa !13
  %25 = load i32, ptr %7, align 4, !tbaa !13
  %26 = load i32, ptr %8, align 4, !tbaa !13
  %27 = call noundef i32 @_ZN6icu_77L13setWeightByteEjij(i32 noundef %24, i32 noundef %25, i32 noundef %26)
  ret i32 %27

28:                                               ; preds = %10
  %29 = getelementptr inbounds nuw %"class.icu_77::CollationWeights", ptr %9, i32 0, i32 1
  %30 = load i32, ptr %7, align 4, !tbaa !13
  %31 = sext i32 %30 to i64
  %32 = getelementptr inbounds [5 x i32], ptr %29, i64 0, i64 %31
  %33 = load i32, ptr %32, align 4, !tbaa !13
  %34 = load i32, ptr %8, align 4, !tbaa !13
  %35 = sub i32 %34, %33
  store i32 %35, ptr %8, align 4, !tbaa !13
  %36 = load i32, ptr %6, align 4, !tbaa !13
  %37 = load i32, ptr %7, align 4, !tbaa !13
  %38 = getelementptr inbounds nuw %"class.icu_77::CollationWeights", ptr %9, i32 0, i32 1
  %39 = load i32, ptr %7, align 4, !tbaa !13
  %40 = sext i32 %39 to i64
  %41 = getelementptr inbounds [5 x i32], ptr %38, i64 0, i64 %40
  %42 = load i32, ptr %41, align 4, !tbaa !13
  %43 = load i32, ptr %8, align 4, !tbaa !13
  %44 = load i32, ptr %7, align 4, !tbaa !13
  %45 = call noundef i32 @_ZNK6icu_7716CollationWeights10countBytesEi(ptr noundef nonnull align 4 dereferenceable(164) %9, i32 noundef %44)
  %46 = srem i32 %43, %45
  %47 = add i32 %42, %46
  %48 = call noundef i32 @_ZN6icu_77L13setWeightByteEjij(i32 noundef %36, i32 noundef %37, i32 noundef %47)
  store i32 %48, ptr %6, align 4, !tbaa !13
  %49 = load i32, ptr %7, align 4, !tbaa !13
  %50 = call noundef i32 @_ZNK6icu_7716CollationWeights10countBytesEi(ptr noundef nonnull align 4 dereferenceable(164) %9, i32 noundef %49)
  %51 = load i32, ptr %8, align 4, !tbaa !13
  %52 = sdiv i32 %51, %50
  store i32 %52, ptr %8, align 4, !tbaa !13
  %53 = load i32, ptr %7, align 4, !tbaa !13
  %54 = add nsw i32 %53, -1
  store i32 %54, ptr %7, align 4, !tbaa !13
  br label %55

55:                                               ; preds = %28
  br label %10, !llvm.loop !18
}