; Function Attrs: mustprogress nofree norecurse nosync nounwind willreturn memory(argmem: read) uwtable
define noundef i32 @_ZNK6icu_7716CollationWeights17incWeightByOffsetEjii(ptr noundef nonnull readonly align 4 captures(none) dereferenceable(164) %0, i32 noundef %1, i32 noundef %2, i32 noundef %3) local_unnamed_addr #3 align 2 {
  %5 = getelementptr inbounds nuw i8, ptr %0, i64 24
  %6 = shl i32 %2, 3
  %7 = sub i32 32, %6
  %8 = lshr i32 %1, %7
  %9 = and i32 %8, 255
  %10 = add i32 %9, %3
  %11 = sext i32 %2 to i64
  %12 = getelementptr inbounds [5 x i32], ptr %5, i64 0, i64 %11
  %13 = load i32, ptr %12, align 4, !tbaa !9
  %.not24 = icmp ugt i32 %10, %13
  br i1 %.not24, label %.lr.ph, label %._crit_edge

.lr.ph:                                           ; preds = %4
  %14 = getelementptr inbounds nuw i8, ptr %0, i64 4
  br label %22

._crit_edge:                                      ; preds = %22, %4
  %.019.lcssa = phi i32 [ %1, %4 ], [ %40, %22 ]
  %.018.lcssa = phi i32 [ %2, %4 ], [ %42, %22 ]
  %.lcssa23 = phi i32 [ %6, %4 ], [ %43, %22 ]
  %.lcssa22 = phi i32 [ %7, %4 ], [ %44, %22 ]
  %.lcssa = phi i32 [ %10, %4 ], [ %47, %22 ]
  %15 = icmp slt i32 %.018.lcssa, 4
  %16 = lshr i32 -1, %.lcssa23
  %.0.i = select i1 %15, i32 %16, i32 0
  %17 = shl i32 -256, %.lcssa22
  %18 = or i32 %.0.i, %17
  %19 = and i32 %18, %.019.lcssa
  %20 = shl i32 %.lcssa, %.lcssa22
  %21 = or i32 %20, %19
  ret i32 %21

22:                                               ; preds = %.lr.ph, %22
  %indvars.iv = phi i64 [ %11, %.lr.ph ], [ %indvars.iv.next, %22 ]
  %23 = phi i32 [ %13, %.lr.ph ], [ %49, %22 ]
  %24 = phi i32 [ %10, %.lr.ph ], [ %47, %22 ]
  %25 = phi i32 [ %7, %.lr.ph ], [ %44, %22 ]
  %26 = phi i32 [ %6, %.lr.ph ], [ %43, %22 ]
  %.01925 = phi i32 [ %1, %.lr.ph ], [ %40, %22 ]
  %27 = getelementptr inbounds [5 x i32], ptr %14, i64 0, i64 %indvars.iv
  %28 = load i32, ptr %27, align 4, !tbaa !9
  %29 = sub i32 %24, %28
  %30 = add nuw i32 %23, 1
  %31 = sub i32 %30, %28
  %32 = srem i32 %29, %31
  %33 = add i32 %32, %28
  %34 = icmp slt i64 %indvars.iv, 4
  %35 = lshr i32 -1, %26
  %.0.i21 = select i1 %34, i32 %35, i32 0
  %36 = shl i32 -256, %25
  %37 = or i32 %.0.i21, %36
  %38 = and i32 %37, %.01925
  %39 = shl i32 %33, %25
  %40 = or i32 %39, %38
  %41 = sdiv i32 %29, %31
  %indvars.iv.next = add nsw i64 %indvars.iv, -1
  %42 = trunc nsw i64 %indvars.iv.next to i32
  %43 = shl i32 %42, 3
  %44 = sub i32 32, %43
  %45 = lshr i32 %40, %44
  %46 = and i32 %45, 255
  %47 = add i32 %46, %41
  %48 = getelementptr inbounds [5 x i32], ptr %5, i64 0, i64 %indvars.iv.next
  %49 = load i32, ptr %48, align 4, !tbaa !9
  %.not = icmp ugt i32 %47, %49
  br i1 %.not, label %22, label %._crit_edge, !llvm.loop !13
}